target datalayout = "e-m:e-p270:32:32-p271:32:32-p272:64:64-i64:64-i128:128-f80:128-n8:16:32:64-S128"
target triple = "x86_64-pc-linux-gnu"

%"class.std::__cxx11::basic_string" = type { %"struct.std::__cxx11::basic_string<char>::_Alloc_hider", i64, %union.anon }
%"struct.std::__cxx11::basic_string<char>::_Alloc_hider" = type { ptr }
%union.anon = type { i64, [8 x i8] }
%"struct.faiss::IndexNSG" = type <{ %"struct.faiss::Index.base", [4 x i8], %"struct.faiss::NSG", i8, [7 x i8], ptr, i8, [3 x i8], i32, i8, [3 x i8], i32, i32, i32, i32, [4 x i8] }>
%"struct.faiss::Index.base" = type <{ ptr, i32, [4 x i8], i64, i8, i8, [2 x i8], i32, float }>
%"struct.faiss::NSG" = type { i32, i32, i32, i32, i32, i32, %"class.std::shared_ptr", i8, %"struct.faiss::RandomGenerator" }
%"class.std::shared_ptr" = type { %"class.std::__shared_ptr" }
%"class.std::__shared_ptr" = type { ptr, %"class.std::__shared_count" }
%"class.std::__shared_count" = type { ptr }
%"struct.faiss::RandomGenerator" = type { %"class.std::mersenne_twister_engine" }
%"class.std::mersenne_twister_engine" = type { [624 x i64], i64 }
%"struct.faiss::Index" = type <{ ptr, i32, [4 x i8], i64, i8, i8, [2 x i8], i32, float, [4 x i8] }>
%"struct.faiss::nsg::Graph" = type <{ ptr, i32, i32, i8, [7 x i8] }>

@.str = private unnamed_addr constant [87 x i8] c"Error: '%s' failed: Please use IndexNSGFlat (or variants) instead of IndexNSG directly\00", align 1
@.str.1 = private unnamed_addr constant [8 x i8] c"storage\00", align 1
@.str.2 = private unnamed_addr constant [108 x i8] c"generated/home/dtcxzyw/WorkSpace/Projects/compilers/llvm-opt-benchmark/bench/faiss/faiss/faiss/IndexNSG.cpp\00", align 1
@_ZTIN5faiss14FaissExceptionE = external constant ptr
@__PRETTY_FUNCTION__._ZN5faiss8IndexNSG5buildElPKfPli = private unnamed_addr constant [64 x i8] c"void faiss::IndexNSG::build(idx_t, const float *, idx_t *, int)\00", align 1
@.str.6 = private unnamed_addr constant [50 x i8] c"Error: '%s' failed: The IndexNSG is already built\00", align 1
@.str.7 = private unnamed_addr constant [25 x i8] c"!is_built && ntotal == 0\00", align 1

; Function Attrs: mustprogress nounwind uwtable
define linkonce_odr void @_ZN5faiss3nsg5GraphIlED2Ev(ptr noundef nonnull align 8 dereferenceable(17) %0) unnamed_addr #0 comdat align 2 {
  %2 = alloca ptr, align 8
  store ptr %0, ptr %2, align 8
  %3 = load ptr, ptr %2, align 8
  %4 = getelementptr inbounds %"struct.faiss::nsg::Graph", ptr %3, i32 0, i32 3
  %5 = load i8, ptr %4, align 8
  %6 = trunc i8 %5 to i1
  br i1 %6, label %7, label %13

7:                                                ; preds = %1
  %8 = getelementptr inbounds %"struct.faiss::nsg::Graph", ptr %3, i32 0, i32 0
  %9 = load ptr, ptr %8, align 8
  %10 = icmp eq ptr %9, null
  br i1 %10, label %12, label %11

11:                                               ; preds = %7
  call void @_ZdaPv(ptr noundef %9) #15
  br label %12

12:                                               ; preds = %11, %7
  br label %13

13:                                               ; preds = %12, %1
  ret void
}

; Function Attrs: mustprogress nounwind uwtable
define linkonce_odr void @_ZN5faiss3nsg5GraphIlEC2EPlii(ptr noundef nonnull align 8 dereferenceable(17) %0, ptr noundef %1, i32 noundef %2, i32 noundef %3) unnamed_addr #0 comdat align 2 {
  %5 = alloca ptr, align 8
  %6 = alloca ptr, align 8
  %7 = alloca i32, align 4
  %8 = alloca i32, align 4
  store ptr %0, ptr %5, align 8
  store ptr %1, ptr %6, align 8
  store i32 %2, ptr %7, align 4
  store i32 %3, ptr %8, align 4
  %9 = load ptr, ptr %5, align 8
  %10 = getelementptr inbounds %"struct.faiss::nsg::Graph", ptr %9, i32 0, i32 0
  %11 = load ptr, ptr %6, align 8
  store ptr %11, ptr %10, align 8
  %12 = getelementptr inbounds %"struct.faiss::nsg::Graph", ptr %9, i32 0, i32 1
  %13 = load i32, ptr %8, align 4
  store i32 %13, ptr %12, align 8
  %14 = getelementptr inbounds %"struct.faiss::nsg::Graph", ptr %9, i32 0, i32 2
  %15 = load i32, ptr %7, align 4
  store i32 %15, ptr %14, align 4
  %16 = getelementptr inbounds %"struct.faiss::nsg::Graph", ptr %9, i32 0, i32 3
  store i8 0, ptr %16, align 8
  ret void
}

; Function Attrs: mustprogress uwtable
define void @_ZN5faiss8IndexNSG5buildElPKfPli(ptr noundef nonnull align 8 dereferenceable(5132) %0, i64 noundef %1, ptr noundef %2, ptr noundef %3, i32 noundef %4) #1 align 2 personality ptr @__gxx_personality_v0 {
  %6 = alloca ptr, align 8
  %7 = alloca i64, align 8
  %8 = alloca ptr, align 8
  %9 = alloca ptr, align 8
  %10 = alloca i32, align 4
  %11 = alloca %"class.std::__cxx11::basic_string", align 8
  %12 = alloca i32, align 4
  %13 = alloca ptr, align 8
  %14 = alloca i32, align 4
  %15 = alloca %"class.std::__cxx11::basic_string", align 8
  %16 = alloca i32, align 4
  %17 = alloca %"struct.faiss::nsg::Graph", align 8
  store ptr %0, ptr %6, align 8
  store i64 %1, ptr %7, align 8
  store ptr %2, ptr %8, align 8
  store ptr %3, ptr %9, align 8
  store i32 %4, ptr %10, align 4
  %18 = load ptr, ptr %6, align 8
  br label %19

19:                                               ; preds = %5
  %20 = getelementptr inbounds %"struct.faiss::IndexNSG", ptr %18, i32 0, i32 5
  %21 = load ptr, ptr %20, align 8
  %22 = icmp ne ptr %21, null
  br i1 %22, label %46, label %23

23:                                               ; preds = %19
  br label %24

24:                                               ; preds = %23
  call void @_ZNSt7__cxx1112basic_stringIcSt11char_traitsIcESaIcEEC1Ev(ptr noundef nonnull align 8 dereferenceable(32) %11) #7
  %25 = call i32 (ptr, i64, ptr, ...) @snprintf(ptr noundef null, i64 noundef 0, ptr noundef @.str, ptr noundef @.str.1) #7
  store i32 %25, ptr %12, align 4
  %26 = load i32, ptr %12, align 4
  %27 = add nsw i32 %26, 1
  %28 = sext i32 %27 to i64
  invoke void @_ZNSt7__cxx1112basic_stringIcSt11char_traitsIcESaIcEE6resizeEm(ptr noundef nonnull align 8 dereferenceable(32) %11, i64 noundef %28)
          to label %29 unwind label %36

29:                                               ; preds = %24
  %30 = invoke noundef nonnull align 1 dereferenceable(1) ptr @_ZNSt7__cxx1112basic_stringIcSt11char_traitsIcESaIcEEixEm(ptr noundef nonnull align 8 dereferenceable(32) %11, i64 noundef 0)
          to label %31 unwind label %36

31:                                               ; preds = %29
  %32 = call noundef i64 @_ZNKSt7__cxx1112basic_stringIcSt11char_traitsIcESaIcEE4sizeEv(ptr noundef nonnull align 8 dereferenceable(32) %11) #7
  %33 = call i32 (ptr, i64, ptr, ...) @snprintf(ptr noundef %30, i64 noundef %32, ptr noundef @.str, ptr noundef @.str.1) #7
  %34 = call ptr @__cxa_allocate_exception(i64 40) #7
  invoke void @_ZN5faiss14FaissExceptionC1ERKNSt7__cxx1112basic_stringIcSt11char_traitsIcESaIcEEEPKcSA_i(ptr noundef nonnull align 8 dereferenceable(40) %34, ptr noundef nonnull align 8 dereferenceable(32) %11, ptr noundef @__PRETTY_FUNCTION__._ZN5faiss8IndexNSG5buildElPKfPli, ptr noundef @.str.2, i32 noundef 110)
          to label %35 unwind label %40

35:                                               ; preds = %31
  invoke void @__cxa_throw(ptr %34, ptr @_ZTIN5faiss14FaissExceptionE, ptr @_ZN5faiss14FaissExceptionD2Ev) #16
          to label %118 unwind label %36

36:                                               ; preds = %35, %29, %24
  %37 = landingpad { ptr, i32 }
          cleanup
  %38 = extractvalue { ptr, i32 } %37, 0
  store ptr %38, ptr %13, align 8
  %39 = extractvalue { ptr, i32 } %37, 1
  store i32 %39, ptr %14, align 4
  br label %44

40:                                               ; preds = %31
  %41 = landingpad { ptr, i32 }
          cleanup
  %42 = extractvalue { ptr, i32 } %41, 0
  store ptr %42, ptr %13, align 8
  %43 = extractvalue { ptr, i32 } %41, 1
  store i32 %43, ptr %14, align 4
  call void @__cxa_free_exception(ptr %34) #7
  br label %44

44:                                               ; preds = %40, %36
  call void @_ZNSt7__cxx1112basic_stringIcSt11char_traitsIcESaIcEED1Ev(ptr noundef nonnull align 8 dereferenceable(32) %11) #7
  br label %113

45:                                               ; No predecessors!
  br label %46

46:                                               ; preds = %45, %19
  br label %47

47:                                               ; preds = %46
  br label %48

48:                                               ; preds = %47
  %49 = getelementptr inbounds %"struct.faiss::IndexNSG", ptr %18, i32 0, i32 6
  %50 = load i8, ptr %49, align 8
  %51 = trunc i8 %50 to i1
  br i1 %51, label %56, label %52

52:                                               ; preds = %48
  %53 = getelementptr inbounds %"struct.faiss::Index", ptr %18, i32 0, i32 3
  %54 = load i64, ptr %53, align 8
  %55 = icmp eq i64 %54, 0
  br i1 %55, label %79, label %56

56:                                               ; preds = %52, %48
  br label %57

57:                                               ; preds = %56
  call void @_ZNSt7__cxx1112basic_stringIcSt11char_traitsIcESaIcEEC1Ev(ptr noundef nonnull align 8 dereferenceable(32) %15) #7
  %58 = call i32 (ptr, i64, ptr, ...) @snprintf(ptr noundef null, i64 noundef 0, ptr noundef @.str.6, ptr noundef @.str.7) #7
  store i32 %58, ptr %16, align 4
  %59 = load i32, ptr %16, align 4
  %60 = add nsw i32 %59, 1
  %61 = sext i32 %60 to i64
  invoke void @_ZNSt7__cxx1112basic_stringIcSt11char_traitsIcESaIcEE6resizeEm(ptr noundef nonnull align 8 dereferenceable(32) %15, i64 noundef %61)
          to label %62 unwind label %69

62:                                               ; preds = %57
  %63 = invoke noundef nonnull align 1 dereferenceable(1) ptr @_ZNSt7__cxx1112basic_stringIcSt11char_traitsIcESaIcEEixEm(ptr noundef nonnull align 8 dereferenceable(32) %15, i64 noundef 0)
          to label %64 unwind label %69

64:                                               ; preds = %62
  %65 = call noundef i64 @_ZNKSt7__cxx1112basic_stringIcSt11char_traitsIcESaIcEE4sizeEv(ptr noundef nonnull align 8 dereferenceable(32) %15) #7
  %66 = call i32 (ptr, i64, ptr, ...) @snprintf(ptr noundef %63, i64 noundef %65, ptr noundef @.str.6, ptr noundef @.str.7) #7
  %67 = call ptr @__cxa_allocate_exception(i64 40) #7
  invoke void @_ZN5faiss14FaissExceptionC1ERKNSt7__cxx1112basic_stringIcSt11char_traitsIcESaIcEEEPKcSA_i(ptr noundef nonnull align 8 dereferenceable(40) %67, ptr noundef nonnull align 8 dereferenceable(32) %15, ptr noundef @__PRETTY_FUNCTION__._ZN5faiss8IndexNSG5buildElPKfPli, ptr noundef @.str.2, i32 noundef 112)
          to label %68 unwind label %73

68:                                               ; preds = %64
  invoke void @__cxa_throw(ptr %67, ptr @_ZTIN5faiss14FaissExceptionE, ptr @_ZN5faiss14FaissExceptionD2Ev) #16
          to label %118 unwind label %69

69:                                               ; preds = %68, %62, %57
  %70 = landingpad { ptr, i32 }
          cleanup
  %71 = extractvalue { ptr, i32 } %70, 0
  store ptr %71, ptr %13, align 8
  %72 = extractvalue { ptr, i32 } %70, 1
  store i32 %72, ptr %14, align 4
  br label %77

73:                                               ; preds = %64
  %74 = landingpad { ptr, i32 }
          cleanup
  %75 = extractvalue { ptr, i32 } %74, 0
  store ptr %75, ptr %13, align 8
  %76 = extractvalue { ptr, i32 } %74, 1
  store i32 %76, ptr %14, align 4
  call void @__cxa_free_exception(ptr %67) #7
  br label %77

77:                                               ; preds = %73, %69
  call void @_ZNSt7__cxx1112basic_stringIcSt11char_traitsIcESaIcEED1Ev(ptr noundef nonnull align 8 dereferenceable(32) %15) #7
  br label %113

78:                                               ; No predecessors!
  br label %79

79:                                               ; preds = %78, %52
  br label %80

80:                                               ; preds = %79
  %81 = getelementptr inbounds %"struct.faiss::IndexNSG", ptr %18, i32 0, i32 5
  %82 = load ptr, ptr %81, align 8
  %83 = load i64, ptr %7, align 8
  %84 = load ptr, ptr %8, align 8
  %85 = load ptr, ptr %82, align 8
  %86 = getelementptr inbounds ptr, ptr %85, i64 3
  %87 = load ptr, ptr %86, align 8
  call void %87(ptr noundef nonnull align 8 dereferenceable(36) %82, i64 noundef %83, ptr noundef %84)
  %88 = getelementptr inbounds %"struct.faiss::IndexNSG", ptr %18, i32 0, i32 5
  %89 = load ptr, ptr %88, align 8
  %90 = getelementptr inbounds %"struct.faiss::Index", ptr %89, i32 0, i32 3
  %91 = load i64, ptr %90, align 8
  %92 = getelementptr inbounds %"struct.faiss::Index", ptr %18, i32 0, i32 3
  store i64 %91, ptr %92, align 8
  %93 = load ptr, ptr %9, align 8
  %94 = load i64, ptr %7, align 8
  %95 = load i32, ptr %10, align 4
  call void @_ZNK5faiss8IndexNSG15check_knn_graphEPKlli(ptr noundef nonnull align 8 dereferenceable(5132) %18, ptr noundef %93, i64 noundef %94, i32 noundef %95)
  %96 = load ptr, ptr %9, align 8
  %97 = load i64, ptr %7, align 8
  %98 = trunc i64 %97 to i32
  %99 = load i32, ptr %10, align 4
  call void @_ZN5faiss3nsg5GraphIlEC2EPlii(ptr noundef nonnull align 8 dereferenceable(17) %17, ptr noundef %96, i32 noundef %98, i32 noundef %99)
  %100 = getelementptr inbounds %"struct.faiss::IndexNSG", ptr %18, i32 0, i32 2
  %101 = getelementptr inbounds %"struct.faiss::IndexNSG", ptr %18, i32 0, i32 5
  %102 = load ptr, ptr %101, align 8
  %103 = load i64, ptr %7, align 8
  %104 = getelementptr inbounds %"struct.faiss::Index", ptr %18, i32 0, i32 4
  %105 = load i8, ptr %104, align 8
  %106 = trunc i8 %105 to i1
  invoke void @_ZN5faiss3NSG5buildEPNS_5IndexElRKNS_3nsg5GraphIlEEb(ptr noundef nonnull align 8 dereferenceable(5048) %100, ptr noundef %102, i64 noundef %103, ptr noundef nonnull align 8 dereferenceable(17) %17, i1 noundef zeroext %106)
          to label %107 unwind label %109

107:                                              ; preds = %80
  %108 = getelementptr inbounds %"struct.faiss::IndexNSG", ptr %18, i32 0, i32 6
  store i8 1, ptr %108, align 8
  call void @_ZN5faiss3nsg5GraphIlED2Ev(ptr noundef nonnull align 8 dereferenceable(17) %17) #7
  ret void

109:                                              ; preds = %80
  %110 = landingpad { ptr, i32 }
          cleanup
  %111 = extractvalue { ptr, i32 } %110, 0
  store ptr %111, ptr %13, align 8
  %112 = extractvalue { ptr, i32 } %110, 1
  store i32 %112, ptr %14, align 4
  call void @_ZN5faiss3nsg5GraphIlED2Ev(ptr noundef nonnull align 8 dereferenceable(17) %17) #7
  br label %113

113:                                              ; preds = %109, %77, %44
  %114 = load ptr, ptr %13, align 8
  %115 = load i32, ptr %14, align 4
  %116 = insertvalue { ptr, i32 } poison, ptr %114, 0
  %117 = insertvalue { ptr, i32 } %116, i32 %115, 1
  resume { ptr, i32 } %117

118:                                              ; preds = %68, %35
  unreachable
}