; Function Attrs: mustprogress uwtable
define void @_ZN5faiss8IndexNSG5buildElPKfPli(ptr noundef nonnull align 8 dereferenceable(5132) %0, i64 noundef %1, ptr noundef %2, ptr noundef %3, i32 noundef %4) local_unnamed_addr #1 align 2 personality ptr @__gxx_personality_v0 {
  %6 = alloca %"class.std::__cxx11::basic_string", align 8
  %7 = alloca %"class.std::__cxx11::basic_string", align 8
  %8 = alloca %"struct.faiss::nsg::Graph", align 8
  %9 = getelementptr inbounds i8, ptr %0, i64 5096
  %10 = load ptr, ptr %9, align 8
  %.not = icmp eq ptr %10, null
  br i1 %.not, label %11, label %27

11:                                               ; preds = %5
  call void @_ZNSt7__cxx1112basic_stringIcSt11char_traitsIcESaIcEEC1Ev(ptr noundef nonnull align 8 dereferenceable(32) %6) #8
  %12 = call i32 (ptr, i64, ptr, ...) @snprintf(ptr noundef null, i64 noundef 0, ptr noundef nonnull @.str, ptr noundef nonnull @.str.1) #8
  %13 = add nsw i32 %12, 1
  %14 = sext i32 %13 to i64
  invoke void @_ZNSt7__cxx1112basic_stringIcSt11char_traitsIcESaIcEE6resizeEm(ptr noundef nonnull align 8 dereferenceable(32) %6, i64 noundef %14)
          to label %15 unwind label %22

15:                                               ; preds = %11
  %16 = invoke noundef nonnull align 1 dereferenceable(1) ptr @_ZNSt7__cxx1112basic_stringIcSt11char_traitsIcESaIcEEixEm(ptr noundef nonnull align 8 dereferenceable(32) %6, i64 noundef 0)
          to label %17 unwind label %22

17:                                               ; preds = %15
  %18 = call noundef i64 @_ZNKSt7__cxx1112basic_stringIcSt11char_traitsIcESaIcEE4sizeEv(ptr noundef nonnull align 8 dereferenceable(32) %6) #8
  %19 = call i32 (ptr, i64, ptr, ...) @snprintf(ptr noundef nonnull %16, i64 noundef %18, ptr noundef nonnull @.str, ptr noundef nonnull @.str.1) #8
  %20 = call ptr @__cxa_allocate_exception(i64 40) #8
  invoke void @_ZN5faiss14FaissExceptionC1ERKNSt7__cxx1112basic_stringIcSt11char_traitsIcESaIcEEEPKcSA_i(ptr noundef nonnull align 8 dereferenceable(40) %20, ptr noundef nonnull align 8 dereferenceable(32) %6, ptr noundef nonnull @__PRETTY_FUNCTION__._ZN5faiss8IndexNSG5buildElPKfPli, ptr noundef nonnull @.str.2, i32 noundef 110)
          to label %21 unwind label %24

21:                                               ; preds = %17
  invoke void @__cxa_throw(ptr nonnull %20, ptr nonnull @_ZTIN5faiss14FaissExceptionE, ptr nonnull @_ZN5faiss14FaissExceptionD2Ev) #20
          to label %83 unwind label %22

22:                                               ; preds = %21, %15, %11
  %23 = landingpad { ptr, i32 }
          cleanup
  br label %26

24:                                               ; preds = %17
  %25 = landingpad { ptr, i32 }
          cleanup
  call void @__cxa_free_exception(ptr %20) #8
  br label %26

26:                                               ; preds = %24, %22
  %.pn = phi { ptr, i32 } [ %23, %22 ], [ %25, %24 ]
  call void @_ZNSt7__cxx1112basic_stringIcSt11char_traitsIcESaIcEED1Ev(ptr noundef nonnull align 8 dereferenceable(32) %6) #8
  br label %_ZN5faiss3nsg5GraphIlED2Ev.exit23

27:                                               ; preds = %5
  %28 = getelementptr inbounds i8, ptr %0, i64 5104
  %29 = load i8, ptr %28, align 8
  %30 = and i8 %29, 1
  %.not18 = icmp eq i8 %30, 0
  br i1 %.not18, label %31, label %35

31:                                               ; preds = %27
  %32 = getelementptr inbounds i8, ptr %0, i64 16
  %33 = load i64, ptr %32, align 8
  %34 = icmp eq i64 %33, 0
  br i1 %34, label %51, label %35

35:                                               ; preds = %27, %31
  call void @_ZNSt7__cxx1112basic_stringIcSt11char_traitsIcESaIcEEC1Ev(ptr noundef nonnull align 8 dereferenceable(32) %7) #8
  %36 = call i32 (ptr, i64, ptr, ...) @snprintf(ptr noundef null, i64 noundef 0, ptr noundef nonnull @.str.6, ptr noundef nonnull @.str.7) #8
  %37 = add nsw i32 %36, 1
  %38 = sext i32 %37 to i64
  invoke void @_ZNSt7__cxx1112basic_stringIcSt11char_traitsIcESaIcEE6resizeEm(ptr noundef nonnull align 8 dereferenceable(32) %7, i64 noundef %38)
          to label %39 unwind label %46

39:                                               ; preds = %35
  %40 = invoke noundef nonnull align 1 dereferenceable(1) ptr @_ZNSt7__cxx1112basic_stringIcSt11char_traitsIcESaIcEEixEm(ptr noundef nonnull align 8 dereferenceable(32) %7, i64 noundef 0)
          to label %41 unwind label %46

41:                                               ; preds = %39
  %42 = call noundef i64 @_ZNKSt7__cxx1112basic_stringIcSt11char_traitsIcESaIcEE4sizeEv(ptr noundef nonnull align 8 dereferenceable(32) %7) #8
  %43 = call i32 (ptr, i64, ptr, ...) @snprintf(ptr noundef nonnull %40, i64 noundef %42, ptr noundef nonnull @.str.6, ptr noundef nonnull @.str.7) #8
  %44 = call ptr @__cxa_allocate_exception(i64 40) #8
  invoke void @_ZN5faiss14FaissExceptionC1ERKNSt7__cxx1112basic_stringIcSt11char_traitsIcESaIcEEEPKcSA_i(ptr noundef nonnull align 8 dereferenceable(40) %44, ptr noundef nonnull align 8 dereferenceable(32) %7, ptr noundef nonnull @__PRETTY_FUNCTION__._ZN5faiss8IndexNSG5buildElPKfPli, ptr noundef nonnull @.str.2, i32 noundef 112)
          to label %45 unwind label %48

45:                                               ; preds = %41
  invoke void @__cxa_throw(ptr nonnull %44, ptr nonnull @_ZTIN5faiss14FaissExceptionE, ptr nonnull @_ZN5faiss14FaissExceptionD2Ev) #20
          to label %83 unwind label %46

46:                                               ; preds = %45, %39, %35
  %47 = landingpad { ptr, i32 }
          cleanup
  br label %50

48:                                               ; preds = %41
  %49 = landingpad { ptr, i32 }
          cleanup
  call void @__cxa_free_exception(ptr %44) #8
  br label %50

50:                                               ; preds = %48, %46
  %.pn19 = phi { ptr, i32 } [ %47, %46 ], [ %49, %48 ]
  call void @_ZNSt7__cxx1112basic_stringIcSt11char_traitsIcESaIcEED1Ev(ptr noundef nonnull align 8 dereferenceable(32) %7) #8
  br label %_ZN5faiss3nsg5GraphIlED2Ev.exit23

51:                                               ; preds = %31
  %52 = load ptr, ptr %10, align 8
  %53 = getelementptr inbounds i8, ptr %52, i64 24
  %54 = load ptr, ptr %53, align 8
  tail call void %54(ptr noundef nonnull align 8 dereferenceable(36) %10, i64 noundef %1, ptr noundef %2)
  %55 = load ptr, ptr %9, align 8
  %56 = getelementptr inbounds i8, ptr %55, i64 16
  %57 = load i64, ptr %56, align 8
  store i64 %57, ptr %32, align 8
  tail call void @_ZNK5faiss8IndexNSG15check_knn_graphEPKlli(ptr nonnull align 8 poison, ptr noundef %3, i64 noundef %1, i32 noundef %4)
  %58 = trunc i64 %1 to i32
  store ptr %3, ptr %8, align 8
  %59 = getelementptr inbounds i8, ptr %8, i64 8
  store i32 %4, ptr %59, align 8
  %60 = getelementptr inbounds i8, ptr %8, i64 12
  store i32 %58, ptr %60, align 4
  %61 = getelementptr inbounds i8, ptr %8, i64 16
  store i8 0, ptr %61, align 8
  %62 = getelementptr inbounds i8, ptr %0, i64 40
  %63 = load ptr, ptr %9, align 8
  %64 = getelementptr inbounds i8, ptr %0, i64 24
  %65 = load i8, ptr %64, align 8
  %66 = and i8 %65, 1
  %67 = icmp ne i8 %66, 0
  invoke void @_ZN5faiss3NSG5buildEPNS_5IndexElRKNS_3nsg5GraphIlEEb(ptr noundef nonnull align 8 dereferenceable(5048) %62, ptr noundef %63, i64 noundef %1, ptr noundef nonnull align 8 dereferenceable(17) %8, i1 noundef zeroext %67)
          to label %68 unwind label %75

68:                                               ; preds = %51
  store i8 1, ptr %28, align 8
  %69 = load i8, ptr %61, align 8
  %70 = and i8 %69, 1
  %.not.i = icmp eq i8 %70, 0
  br i1 %.not.i, label %_ZN5faiss3nsg5GraphIlED2Ev.exit, label %71

71:                                               ; preds = %68
  %72 = load ptr, ptr %8, align 8
  %73 = icmp eq ptr %72, null
  br i1 %73, label %_ZN5faiss3nsg5GraphIlED2Ev.exit, label %74

74:                                               ; preds = %71
  call void @_ZdaPv(ptr noundef nonnull %72) #19
  br label %_ZN5faiss3nsg5GraphIlED2Ev.exit

_ZN5faiss3nsg5GraphIlED2Ev.exit:                  ; preds = %68, %71, %74
  ret void

75:                                               ; preds = %51
  %76 = landingpad { ptr, i32 }
          cleanup
  %77 = load i8, ptr %61, align 8
  %78 = and i8 %77, 1
  %.not.i22 = icmp eq i8 %78, 0
  br i1 %.not.i22, label %_ZN5faiss3nsg5GraphIlED2Ev.exit23, label %79

79:                                               ; preds = %75
  %80 = load ptr, ptr %8, align 8
  %81 = icmp eq ptr %80, null
  br i1 %81, label %_ZN5faiss3nsg5GraphIlED2Ev.exit23, label %82

82:                                               ; preds = %79
  call void @_ZdaPv(ptr noundef nonnull %80) #19
  br label %_ZN5faiss3nsg5GraphIlED2Ev.exit23

_ZN5faiss3nsg5GraphIlED2Ev.exit23:                ; preds = %82, %79, %75, %50, %26
  %.pn19.pn = phi { ptr, i32 } [ %.pn19, %50 ], [ %.pn, %26 ], [ %76, %75 ], [ %76, %79 ], [ %76, %82 ]
  resume { ptr, i32 } %.pn19.pn

83:                                               ; preds = %45, %21
  unreachable
}